; Function Attrs: nounwind uwtable
define dso_local ptr @last_matching_pattern(ptr noundef %0, ptr noundef %1, ptr noundef %2, ptr noundef captures(none) %3) local_unnamed_addr #0 {
  %5 = tail call i64 @strlen(ptr noundef nonnull dereferenceable(1) %2) #28
  %6 = tail call ptr @strrchr(ptr noundef nonnull dereferenceable(1) %2, i32 noundef 47) #28
  %.not = icmp eq ptr %6, null
  %7 = getelementptr inbounds nuw i8, ptr %6, i64 1
  %8 = select i1 %.not, ptr %2, ptr %7
  %9 = ptrtoint ptr %8 to i64
  %10 = ptrtoint ptr %2 to i64
  %11 = sub i64 %9, %10
  %12 = trunc i64 %11 to i32
  tail call fastcc void @prep_exclude(ptr noundef %0, ptr noundef %1, ptr noundef nonnull %2, i32 noundef %12)
  %13 = getelementptr inbounds nuw i8, ptr %0, i64 112
  %14 = load ptr, ptr %13, align 8, !tbaa !148
  %.not19 = icmp eq ptr %14, null
  br i1 %.not19, label %15, label %last_matching_pattern_from_lists.exit

15:                                               ; preds = %4
  %16 = trunc i64 %5 to i32
  %17 = getelementptr inbounds nuw i8, ptr %0, i64 56
  br label %18

18:                                               ; preds = %31, %15
  %indvars.iv24.i = phi i64 [ 0, %15 ], [ %indvars.iv.next25.i, %31 ]
  %19 = getelementptr inbounds nuw [3 x %struct.exclude_list_group], ptr %17, i64 0, i64 %indvars.iv24.i
  %20 = load i32, ptr %19, align 8, !tbaa !60
  %21 = getelementptr inbounds nuw i8, ptr %19, i64 8
  %22 = zext i32 %20 to i64
  br label %23

23:                                               ; preds = %26, %18
  %indvars.iv.i = phi i64 [ %27, %26 ], [ %22, %18 ]
  %24 = trunc nuw i64 %indvars.iv.i to i32
  %25 = icmp sgt i32 %24, 0
  br i1 %25, label %26, label %31

26:                                               ; preds = %23
  %27 = add nsw i64 %indvars.iv.i, -1
  %28 = load ptr, ptr %21, align 8, !tbaa !142
  %29 = getelementptr inbounds nuw %struct.pattern_list, ptr %28, i64 %27
  %30 = tail call fastcc ptr @last_matching_pattern_from_list(ptr noundef nonnull %2, i32 noundef %16, ptr noundef nonnull %8, ptr noundef %3, ptr noundef %29, ptr noundef %1)
  %.not.i = icmp eq ptr %30, null
  br i1 %.not.i, label %23, label %last_matching_pattern_from_lists.exit, !llvm.loop !149

31:                                               ; preds = %23
  %indvars.iv.next25.i = add nuw nsw i64 %indvars.iv24.i, 1
  %exitcond.not.i = icmp eq i64 %indvars.iv.next25.i, 3
  br i1 %exitcond.not.i, label %last_matching_pattern_from_lists.exit, label %18, !llvm.loop !150

last_matching_pattern_from_lists.exit:            ; preds = %31, %26, %4
  %.0 = phi ptr [ %14, %4 ], [ %30, %26 ], [ null, %31 ]
  ret ptr %.0
}